; Function Attrs: mustprogress uwtable
define hidden void @_ZN6Assimp9BVHLoader14ReadNodeOffsetEP6aiNode(ptr noundef nonnull align 8 dereferenceable(177) %this, ptr nocapture noundef writeonly %pNode) local_unnamed_addr #3 align 2 {
entry:
  %call = tail call noundef float @_ZN6Assimp9BVHLoader19GetNextTokenAsFloatEv(ptr noundef nonnull align 8 dereferenceable(177) %this)
  %call2 = tail call noundef float @_ZN6Assimp9BVHLoader19GetNextTokenAsFloatEv(ptr noundef nonnull align 8 dereferenceable(177) %this)
  %call3 = tail call noundef float @_ZN6Assimp9BVHLoader19GetNextTokenAsFloatEv(ptr noundef nonnull align 8 dereferenceable(177) %this)
  %mTransformation = getelementptr inbounds i8, ptr %pNode, i64 1028
  store <2 x float> <float 1.000000e+00, float 0.000000e+00>, ptr %mTransformation, align 4
  %ref.tmp.sroa.3.0.mTransformation.sroa_idx = getelementptr inbounds i8, ptr %pNode, i64 1036
  store float 0.000000e+00, ptr %ref.tmp.sroa.3.0.mTransformation.sroa_idx, align 4
  %ref.tmp.sroa.4.0.mTransformation.sroa_idx = getelementptr inbounds i8, ptr %pNode, i64 1040
  store float %call, ptr %ref.tmp.sroa.4.0.mTransformation.sroa_idx, align 4
  %ref.tmp.sroa.5.0.mTransformation.sroa_idx = getelementptr inbounds i8, ptr %pNode, i64 1044
  store <2 x float> <float 0.000000e+00, float 1.000000e+00>, ptr %ref.tmp.sroa.5.0.mTransformation.sroa_idx, align 4
  %ref.tmp.sroa.7.0.mTransformation.sroa_idx = getelementptr inbounds i8, ptr %pNode, i64 1052
  store float 0.000000e+00, ptr %ref.tmp.sroa.7.0.mTransformation.sroa_idx, align 4
  %ref.tmp.sroa.8.0.mTransformation.sroa_idx = getelementptr inbounds i8, ptr %pNode, i64 1056
  store float %call2, ptr %ref.tmp.sroa.8.0.mTransformation.sroa_idx, align 4
  %ref.tmp.sroa.9.0.mTransformation.sroa_idx = getelementptr inbounds i8, ptr %pNode, i64 1060
  store <2 x float> zeroinitializer, ptr %ref.tmp.sroa.9.0.mTransformation.sroa_idx, align 4
  %ref.tmp.sroa.11.0.mTransformation.sroa_idx = getelementptr inbounds i8, ptr %pNode, i64 1068
  store float 1.000000e+00, ptr %ref.tmp.sroa.11.0.mTransformation.sroa_idx, align 4
  %ref.tmp.sroa.12.0.mTransformation.sroa_idx = getelementptr inbounds i8, ptr %pNode, i64 1072
  store float %call3, ptr %ref.tmp.sroa.12.0.mTransformation.sroa_idx, align 4
  %ref.tmp.sroa.13.0.mTransformation.sroa_idx = getelementptr inbounds i8, ptr %pNode, i64 1076
  store <4 x float> <float 0.000000e+00, float 0.000000e+00, float 0.000000e+00, float 1.000000e+00>, ptr %ref.tmp.sroa.13.0.mTransformation.sroa_idx, align 4
  ret void
}